Certificate:
    Data:
        Version: 3 (0x2)
        Serial Number:
            13:e0:91:32:11:1b:7b:9a:9b:02:26:c9:e7:93:64:a7:f3:15:94:e5
        Signature Algorithm: ecdsa-with-SHA256
        Issuer: CN=ATAPUtilities.org, O=ATAPUtilities.org, C=US
        Validity
            Not Before: May  1 18:51:31 2022 GMT
            Not After : May  4 18:51:31 2023 GMT
        Subject: CN=ncat016, O=ATAPUtilities.org, C=US, OU=Development
        Subject Public Key Info:
            Public Key Algorithm: id-ecPublicKey
                Public-Key: (256 bit)
                pub:
                    04:49:41:bd:ec:63:8a:c7:92:3d:31:e0:f7:35:5b:
                    c5:b7:d1:72:cd:8b:98:29:b6:42:98:f6:92:75:89:
                    25:03:11:2e:30:80:df:07:a0:9f:64:4a:6a:b0:36:
                    49:ad:83:8b:50:25:e5:c3:af:a8:e5:ed:2f:19:80:
                    d9:59:54:f4:77
                ASN1 OID: prime256v1
                NIST CURVE: P-256
        X509v3 extensions:
            X509v3 Basic Constraints: 
                CA:FALSE
            X509v3 Subject Key Identifier: 
                6D:EA:58:8C:55:EF:A4:3B:8E:ED:0D:4B:00:F6:76:AD:49:72:80:85
            X509v3 Authority Key Identifier: 
                keyid:9E:73:3D:F9:B8:86:71:D0:EA:59:33:04:9C:9E:E9:10:74:4A:ED:8F
                DirName:/CN=ATAPUtilities.org/O=ATAPUtilities.org/C=US
                serial:6D:FC:FE:7F:97:19:74:8C:A9:75:C2:C6:9B:D2:87:AD:1F:0A:DE:18
            X509v3 Key Usage: 
                Digital Signature, Non Repudiation, Key Encipherment
            Netscape Cert Type: 
                SSL Server
    Signature Algorithm: ecdsa-with-SHA256
    Signature Value:
        30:45:02:20:7a:a5:04:36:04:12:e6:74:bf:b0:2a:fa:76:d4:
        6c:ac:c4:92:89:5f:26:88:c0:13:c2:48:ad:61:9a:44:17:d7:
        02:21:00:f4:05:ba:be:4f:1a:76:ee:f9:44:68:72:db:cb:2d:
        54:b5:ca:fc:95:c0:eb:3b:7e:f7:ee:9b:82:84:07:b7:4d
-----BEGIN CERTIFICATE-----
MIICaTCCAg+gAwIBAgIUE+CRMhEbe5qbAibJ55Nkp/MVlOUwCgYIKoZIzj0EAwIw
RTEaMBgGA1UEAwwRQVRBUFV0aWxpdGllcy5vcmcxGjAYBgNVBAoMEUFUQVBVdGls
aXRpZXMub3JnMQswCQYDVQQGEwJVUzAeFw0yMjA1MDExODUxMzFaFw0yMzA1MDQx
ODUxMzFaMFExEDAOBgNVBAMMB25jYXQwMTYxGjAYBgNVBAoMEUFUQVBVdGlsaXRp
ZXMub3JnMQswCQYDVQQGEwJVUzEUMBIGA1UECwwLRGV2ZWxvcG1lbnQwWTATBgcq
hkjOPQIBBggqhkjOPQMBBwNCAARJQb3sY4rHkj0x4Pc1W8W30XLNi5gptkKY9pJ1
iSUDES4wgN8HoJ9kSmqwNkmtg4tQJeXDr6jl7S8ZgNlZVPR3o4HQMIHNMAkGA1Ud
EwQCMAAwHQYDVR0OBBYEFG3qWIxV76Q7ju0NSwD2dq1JcoCFMIGABgNVHSMEeTB3
gBSecz35uIZx0OpZMwScnukQdErtj6FJpEcwRTEaMBgGA1UEAwwRQVRBUFV0aWxp
dGllcy5vcmcxGjAYBgNVBAoMEUFUQVBVdGlsaXRpZXMub3JnMQswCQYDVQQGEwJV
U4IUbfz+f5cZdIypdcLGm9KHrR8K3hgwCwYDVR0PBAQDAgXgMBEGCWCGSAGG+EIB
AQQEAwIGQDAKBggqhkjOPQQDAgNIADBFAiB6pQQ2BBLmdL+wKvp21GysxJKJXyaI
wBPCSK1hmkQX1wIhAPQFur5PGnbu+URoctvLLVS1yvyVwOs7fvfum4KEB7dN
-----END CERTIFICATE-----
