Certificate:
    Data:
        Version: 3 (0x2)
        Serial Number:
            08:5c:1a:13:5d:0d:6d:6b:67:cb:ed:c1:ae:43:47:6c:c4:7f:df:77
        Signature Algorithm: ecdsa-with-SHA256
        Issuer: CN=ATAPUtilities.org, O=ATAPUtilities.org, C=US
        Validity
            Not Before: May  1 18:55:19 2022 GMT
            Not After : May  4 18:55:19 2023 GMT
        Subject: CN=ncat016, O=ATAPUtilities.org, C=US, OU=Development
        Subject Public Key Info:
            Public Key Algorithm: id-ecPublicKey
                Public-Key: (256 bit)
                pub:
                    04:60:54:00:f0:a0:d9:ba:6c:fb:56:96:ec:c0:f4:
                    34:b2:8e:1c:e6:69:df:22:1b:d6:2c:d3:8b:66:c7:
                    e9:33:3a:e8:d5:e4:f5:91:5e:b0:c2:d7:1f:47:a4:
                    d1:cd:7b:1f:93:85:1d:15:d6:42:27:ad:38:24:cd:
                    3f:c5:20:a1:a8
                ASN1 OID: prime256v1
                NIST CURVE: P-256
        X509v3 extensions:
            X509v3 Basic Constraints: 
                CA:FALSE
            X509v3 Subject Key Identifier: 
                48:AC:35:EE:73:8A:5F:9C:7C:D8:24:2A:3B:7D:B5:6B:99:62:65:06
            X509v3 Authority Key Identifier: 
                keyid:92:1B:BF:98:EB:56:05:9A:F5:24:0A:00:06:C4:51:25:6C:4A:90:74
                DirName:/CN=ATAPUtilities.org/O=ATAPUtilities.org/C=US
                serial:4A:7F:32:A2:83:73:22:53:2A:E7:5E:80:0B:A8:47:46:EA:F7:E0:6B
            X509v3 Key Usage: 
                Digital Signature, Non Repudiation, Key Encipherment
            Netscape Cert Type: 
                SSL Server
    Signature Algorithm: ecdsa-with-SHA256
    Signature Value:
        30:45:02:20:77:08:f5:36:9b:c7:ac:c4:db:1f:24:79:64:d7:
        c5:9d:d5:64:a3:c7:c7:fd:65:d8:74:93:0b:db:57:ea:b0:3d:
        02:21:00:a3:2a:b2:61:a3:f1:2f:6a:3d:a3:8d:25:c7:53:7a:
        3c:39:4b:a9:dd:fa:ea:a4:9d:86:64:59:3e:60:14:9f:06
-----BEGIN CERTIFICATE-----
MIICaTCCAg+gAwIBAgIUCFwaE10NbWtny+3BrkNHbMR/33cwCgYIKoZIzj0EAwIw
RTEaMBgGA1UEAwwRQVRBUFV0aWxpdGllcy5vcmcxGjAYBgNVBAoMEUFUQVBVdGls
aXRpZXMub3JnMQswCQYDVQQGEwJVUzAeFw0yMjA1MDExODU1MTlaFw0yMzA1MDQx
ODU1MTlaMFExEDAOBgNVBAMMB25jYXQwMTYxGjAYBgNVBAoMEUFUQVBVdGlsaXRp
ZXMub3JnMQswCQYDVQQGEwJVUzEUMBIGA1UECwwLRGV2ZWxvcG1lbnQwWTATBgcq
hkjOPQIBBggqhkjOPQMBBwNCAARgVADwoNm6bPtWluzA9DSyjhzmad8iG9Ys04tm
x+kzOujV5PWRXrDC1x9HpNHNex+ThR0V1kInrTgkzT/FIKGoo4HQMIHNMAkGA1Ud
EwQCMAAwHQYDVR0OBBYEFEisNe5zil+cfNgkKjt9tWuZYmUGMIGABgNVHSMEeTB3
gBSSG7+Y61YFmvUkCgAGxFElbEqQdKFJpEcwRTEaMBgGA1UEAwwRQVRBUFV0aWxp
dGllcy5vcmcxGjAYBgNVBAoMEUFUQVBVdGlsaXRpZXMub3JnMQswCQYDVQQGEwJV
U4IUSn8yooNzIlMq516AC6hHRur34GswCwYDVR0PBAQDAgXgMBEGCWCGSAGG+EIB
AQQEAwIGQDAKBggqhkjOPQQDAgNIADBFAiB3CPU2m8esxNsfJHlk18Wd1WSjx8f9
Zdh0kwvbV+qwPQIhAKMqsmGj8S9qPaONJcdTejw5S6nd+uqknYZkWT5gFJ8G
-----END CERTIFICATE-----
